; ModuleID = 'source-C-CXX/53/1480.cpp'
source_filename = "source-C-CXX/53/1480.cpp"
target datalayout = "e-m:e-p270:32:32-p271:32:32-p272:64:64-i64:64-f80:128-n8:16:32:64-S128"
target triple = "x86_64-pc-linux-gnu"

%"class.std::ios_base::Init" = type { i8 }
%"class.std::basic_istream" = type { i32 (...)**, i64, %"class.std::basic_ios" }
%"class.std::basic_ios" = type { %"class.std::ios_base", %"class.std::basic_ostream"*, i8, i8, %"class.std::basic_streambuf"*, %"class.std::ctype"*, %"class.std::num_put"*, %"class.std::num_get"* }
%"class.std::ios_base" = type { i32 (...)**, i64, i64, i32, i32, i32, %"struct.std::ios_base::_Callback_list"*, %"struct.std::ios_base::_Words", [8 x %"struct.std::ios_base::_Words"], i32, %"struct.std::ios_base::_Words"*, %"class.std::locale" }
%"struct.std::ios_base::_Callback_list" = type { %"struct.std::ios_base::_Callback_list"*, void (i32, %"class.std::ios_base"*, i32)*, i32, i32 }
%"struct.std::ios_base::_Words" = type { i8*, i64 }
%"class.std::locale" = type { %"class.std::locale::_Impl"* }
%"class.std::locale::_Impl" = type { i32, %"class.std::locale::facet"**, i64, %"class.std::locale::facet"**, i8** }
%"class.std::locale::facet" = type <{ i32 (...)**, i32, [4 x i8] }>
%"class.std::basic_ostream" = type { i32 (...)**, %"class.std::basic_ios" }
%"class.std::basic_streambuf" = type { i32 (...)**, i8*, i8*, i8*, i8*, i8*, i8*, %"class.std::locale" }
%"class.std::ctype" = type <{ %"class.std::locale::facet.base", [4 x i8], %struct.__locale_struct*, i8, [7 x i8], i32*, i32*, i16*, i8, [256 x i8], [256 x i8], i8, [6 x i8] }>
%"class.std::locale::facet.base" = type <{ i32 (...)**, i32 }>
%struct.__locale_struct = type { [13 x %struct.__locale_data*], i16*, i32*, i32*, [13 x i8*] }
%struct.__locale_data = type opaque
%"class.std::num_put" = type { %"class.std::locale::facet.base", [4 x i8] }
%"class.std::num_get" = type { %"class.std::locale::facet.base", [4 x i8] }

@_ZStL8__ioinit = internal global %"class.std::ios_base::Init" zeroinitializer, align 1
@__dso_handle = external hidden global i8
@_ZSt3cin = external global %"class.std::basic_istream", align 8
@_ZSt4cout = external global %"class.std::basic_ostream", align 8
@llvm.global_ctors = appending global [1 x { i32, void ()*, i8* }] [{ i32, void ()*, i8* } { i32 65535, void ()* @_GLOBAL__sub_I_1480.cpp, i8* null }]

declare void @_ZNSt8ios_base4InitC1Ev(%"class.std::ios_base::Init"* nonnull align 1 dereferenceable(1)) unnamed_addr #0

; Function Attrs: nounwind
declare void @_ZNSt8ios_base4InitD1Ev(%"class.std::ios_base::Init"* nonnull align 1 dereferenceable(1)) unnamed_addr #1

; Function Attrs: nofree nounwind
declare i32 @__cxa_atexit(void (i8*)*, i8*, i8*) local_unnamed_addr #2

; Function Attrs: mustprogress nofree nosync nounwind readnone sspstrong uwtable willreturn
define dso_local i32 @_Z1fii(i32 %0, i32 %1) local_unnamed_addr #3 {
  %3 = alloca [1000 x i32], align 16
  %4 = bitcast [1000 x i32]* %3 to i8*
  call void @llvm.lifetime.start.p0i8(i64 4000, i8* nonnull %4) #8
  %5 = icmp slt i32 %0, 1
  br i1 %5, label %6, label %10

6:                                                ; preds = %2
  %7 = sext i32 %0 to i64
  %8 = getelementptr inbounds [1000 x i32], [1000 x i32]* %3, i64 0, i64 %7
  %9 = add nsw i32 %1, %0
  store i32 %9, i32* %8, align 4, !tbaa !5
  br label %41

10:                                               ; preds = %2
  %11 = getelementptr inbounds [1000 x i32], [1000 x i32]* %3, i64 0, i64 1
  %12 = bitcast i32* %11 to i8*
  %13 = zext i32 %0 to i64
  %14 = shl nuw nsw i64 %13, 2
  call void @llvm.memset.p0i8.i64(i8* nonnull align 4 %12, i8 0, i64 %14, i1 false)
  %15 = zext i32 %0 to i64
  %16 = getelementptr inbounds [1000 x i32], [1000 x i32]* %3, i64 0, i64 %15
  %17 = add nsw i32 %0, -1
  %18 = icmp eq i32 %0, 1
  %19 = add nsw i32 %1, %0
  store i32 %19, i32* %16, align 4, !tbaa !5
  br i1 %18, label %41, label %20

20:                                               ; preds = %10
  %21 = zext i32 %17 to i64
  br label %22

22:                                               ; preds = %36, %20
  %23 = phi i64 [ %21, %20 ], [ %37, %36 ]
  %24 = add nuw nsw i64 %23, 1
  %25 = getelementptr inbounds [1000 x i32], [1000 x i32]* %3, i64 0, i64 %24
  %26 = load i32, i32* %25, align 4, !tbaa !5
  %27 = srem i32 %26, %17
  %28 = icmp eq i32 %27, 0
  br i1 %28, label %29, label %38

29:                                               ; preds = %22
  %30 = mul nsw i32 %26, %0
  %31 = sdiv i32 %30, %17
  %32 = add nsw i32 %31, %1
  %33 = getelementptr inbounds [1000 x i32], [1000 x i32]* %3, i64 0, i64 %23
  store i32 %32, i32* %33, align 4, !tbaa !5
  %34 = icmp sgt i64 %23, 1
  %35 = add nsw i64 %23, -1
  br i1 %34, label %36, label %41

36:                                               ; preds = %29, %38
  %37 = phi i64 [ %35, %29 ], [ %21, %38 ]
  br label %22, !llvm.loop !9

38:                                               ; preds = %22
  %39 = load i32, i32* %16, align 4, !tbaa !5
  %40 = add nsw i32 %39, %0
  store i32 %40, i32* %16, align 4, !tbaa !5
  br label %36

41:                                               ; preds = %29, %6, %10
  %42 = getelementptr inbounds [1000 x i32], [1000 x i32]* %3, i64 0, i64 1
  %43 = load i32, i32* %42, align 4, !tbaa !5
  call void @llvm.lifetime.end.p0i8(i64 4000, i8* nonnull %4) #8
  ret i32 %43
}

; Function Attrs: argmemonly mustprogress nofree nosync nounwind willreturn
declare void @llvm.lifetime.start.p0i8(i64 immarg, i8* nocapture) #4

; Function Attrs: argmemonly mustprogress nofree nosync nounwind willreturn
declare void @llvm.lifetime.end.p0i8(i64 immarg, i8* nocapture) #4

; Function Attrs: mustprogress norecurse sspstrong uwtable
define dso_local i32 @main() local_unnamed_addr #5 {
  %1 = alloca [1000 x i32], align 16
  %2 = alloca i32, align 4
  %3 = alloca i32, align 4
  %4 = bitcast i32* %2 to i8*
  call void @llvm.lifetime.start.p0i8(i64 4, i8* nonnull %4) #8
  %5 = bitcast i32* %3 to i8*
  call void @llvm.lifetime.start.p0i8(i64 4, i8* nonnull %5) #8
  %6 = call nonnull align 8 dereferenceable(16) %"class.std::basic_istream"* @_ZNSirsERi(%"class.std::basic_istream"* nonnull align 8 dereferenceable(16) @_ZSt3cin, i32* nonnull align 4 dereferenceable(4) %2)
  %7 = call nonnull align 8 dereferenceable(16) %"class.std::basic_istream"* @_ZNSirsERi(%"class.std::basic_istream"* nonnull align 8 dereferenceable(16) %6, i32* nonnull align 4 dereferenceable(4) %3)
  %8 = load i32, i32* %2, align 4, !tbaa !5
  %9 = load i32, i32* %3, align 4, !tbaa !5
  %10 = bitcast [1000 x i32]* %1 to i8*
  call void @llvm.lifetime.start.p0i8(i64 4000, i8* nonnull %10) #8
  %11 = icmp slt i32 %8, 1
  br i1 %11, label %12, label %16

12:                                               ; preds = %0
  %13 = sext i32 %8 to i64
  %14 = getelementptr inbounds [1000 x i32], [1000 x i32]* %1, i64 0, i64 %13
  %15 = add nsw i32 %9, %8
  store i32 %15, i32* %14, align 4, !tbaa !5
  br label %46

16:                                               ; preds = %0
  %17 = getelementptr inbounds [1000 x i32], [1000 x i32]* %1, i64 0, i64 1
  %18 = bitcast i32* %17 to i8*
  %19 = zext i32 %8 to i64
  %20 = shl nuw nsw i64 %19, 2
  call void @llvm.memset.p0i8.i64(i8* nonnull align 4 %18, i8 0, i64 %20, i1 false) #8
  %21 = getelementptr inbounds [1000 x i32], [1000 x i32]* %1, i64 0, i64 %19
  %22 = add nsw i32 %8, -1
  %23 = icmp eq i32 %8, 1
  %24 = add nsw i32 %9, %8
  store i32 %24, i32* %21, align 4, !tbaa !5
  br i1 %23, label %46, label %25

25:                                               ; preds = %16
  %26 = zext i32 %22 to i64
  br label %27

27:                                               ; preds = %41, %25
  %28 = phi i64 [ %26, %25 ], [ %42, %41 ]
  %29 = add nuw nsw i64 %28, 1
  %30 = getelementptr inbounds [1000 x i32], [1000 x i32]* %1, i64 0, i64 %29
  %31 = load i32, i32* %30, align 4, !tbaa !5
  %32 = srem i32 %31, %22
  %33 = icmp eq i32 %32, 0
  br i1 %33, label %34, label %43

34:                                               ; preds = %27
  %35 = mul nsw i32 %31, %8
  %36 = sdiv i32 %35, %22
  %37 = add nsw i32 %36, %9
  %38 = getelementptr inbounds [1000 x i32], [1000 x i32]* %1, i64 0, i64 %28
  store i32 %37, i32* %38, align 4, !tbaa !5
  %39 = icmp sgt i64 %28, 1
  %40 = add nsw i64 %28, -1
  br i1 %39, label %41, label %46

41:                                               ; preds = %34, %43
  %42 = phi i64 [ %40, %34 ], [ %26, %43 ]
  br label %27, !llvm.loop !9

43:                                               ; preds = %27
  %44 = load i32, i32* %21, align 4, !tbaa !5
  %45 = add nsw i32 %44, %8
  store i32 %45, i32* %21, align 4, !tbaa !5
  br label %41

46:                                               ; preds = %34, %12, %16
  %47 = getelementptr inbounds [1000 x i32], [1000 x i32]* %1, i64 0, i64 1
  %48 = load i32, i32* %47, align 4, !tbaa !5
  call void @llvm.lifetime.end.p0i8(i64 4000, i8* nonnull %10) #8
  %49 = call nonnull align 8 dereferenceable(8) %"class.std::basic_ostream"* @_ZNSolsEi(%"class.std::basic_ostream"* nonnull align 8 dereferenceable(8) @_ZSt4cout, i32 %48)
  call void @llvm.lifetime.end.p0i8(i64 4, i8* nonnull %5) #8
  call void @llvm.lifetime.end.p0i8(i64 4, i8* nonnull %4) #8
  ret i32 0
}

declare nonnull align 8 dereferenceable(16) %"class.std::basic_istream"* @_ZNSirsERi(%"class.std::basic_istream"* nonnull align 8 dereferenceable(16), i32* nonnull align 4 dereferenceable(4)) local_unnamed_addr #0

declare nonnull align 8 dereferenceable(8) %"class.std::basic_ostream"* @_ZNSolsEi(%"class.std::basic_ostream"* nonnull align 8 dereferenceable(8), i32) local_unnamed_addr #0

; Function Attrs: sspstrong uwtable
define internal void @_GLOBAL__sub_I_1480.cpp() #6 section ".text.startup" {
  tail call void @_ZNSt8ios_base4InitC1Ev(%"class.std::ios_base::Init"* nonnull align 1 dereferenceable(1) @_ZStL8__ioinit)
  %1 = tail call i32 @__cxa_atexit(void (i8*)* bitcast (void (%"class.std::ios_base::Init"*)* @_ZNSt8ios_base4InitD1Ev to void (i8*)*), i8* getelementptr inbounds (%"class.std::ios_base::Init", %"class.std::ios_base::Init"* @_ZStL8__ioinit, i64 0, i32 0), i8* nonnull @__dso_handle) #8
  ret void
}

; Function Attrs: argmemonly nofree nounwind willreturn writeonly
declare void @llvm.memset.p0i8.i64(i8* nocapture writeonly, i8, i64, i1 immarg) #7


!llvm.module.flags = !{!0, !1, !2, !3}
!llvm.ident = !{!4}

!0 = !{i32 1, !"wchar_size", i32 4}
!1 = !{i32 7, !"PIC Level", i32 2}
!2 = !{i32 7, !"PIE Level", i32 2}
!3 = !{i32 7, !"uwtable", i32 1}
!4 = !{!"clang version 13.0.0"}
!5 = !{!6, !6, i64 0}
!6 = !{!"int", !7, i64 0}
!7 = !{!"omnipotent char", !8, i64 0}
!8 = !{!"Simple C++ TBAA"}
!9 = distinct !{!9, !10}
!10 = !{!"llvm.loop.mustprogress"}
